; Function Attrs: mustprogress uwtable
define hidden void @_ZN8reslimit4pushEj(ptr noundef nonnull align 8 dereferenceable(40) %0, i32 noundef %1) local_unnamed_addr #3 align 2 {
  %3 = getelementptr inbounds nuw i8, ptr %0, i64 8
  %4 = load i64, ptr %3, align 8
  %5 = getelementptr inbounds nuw i8, ptr %0, i64 24
  %6 = load ptr, ptr %5, align 8, !tbaa !27
  %7 = icmp eq ptr %6, null
  br i1 %7, label %14, label %8

8:                                                ; preds = %2
  %9 = getelementptr inbounds i8, ptr %6, i64 -4
  %10 = load i32, ptr %9, align 4, !tbaa !28
  %11 = getelementptr inbounds i8, ptr %6, i64 -8
  %12 = load i32, ptr %11, align 4, !tbaa !28
  %13 = icmp eq i32 %10, %12
  br i1 %13, label %14, label %_ZN6vectorImLb0EjE9push_backERKm.exit

14:                                               ; preds = %8, %2
  tail call void @_ZN6vectorImLb0EjE13expand_vectorEv(ptr noundef nonnull align 8 dereferenceable(8) %5)
  %.pre.i = load ptr, ptr %5, align 8, !tbaa !27
  %.phi.trans.insert.i = getelementptr inbounds i8, ptr %.pre.i, i64 -4
  %.pre2.i = load i32, ptr %.phi.trans.insert.i, align 4, !tbaa !28
  br label %_ZN6vectorImLb0EjE9push_backERKm.exit

_ZN6vectorImLb0EjE9push_backERKm.exit:            ; preds = %8, %14
  %15 = phi i32 [ %.pre2.i, %14 ], [ %10, %8 ]
  %16 = phi ptr [ %.pre.i, %14 ], [ %6, %8 ]
  %17 = getelementptr inbounds nuw i8, ptr %0, i64 16
  %.not = icmp eq i32 %1, 0
  %18 = zext i32 %1 to i64
  %19 = add i64 %4, %18
  %20 = select i1 %.not, i64 -1, i64 %19
  %.not2 = icmp ugt i64 %20, %4
  %21 = getelementptr inbounds i8, ptr %16, i64 -4
  %22 = zext i32 %15 to i64
  %23 = getelementptr inbounds nuw i64, ptr %16, i64 %22
  %24 = load i64, ptr %17, align 8, !tbaa !29
  store i64 %24, ptr %23, align 8, !tbaa !29
  %25 = add i32 %15, 1
  store i32 %25, ptr %21, align 4, !tbaa !28
  %26 = tail call i64 @llvm.umin.i64(i64 %24, i64 %20)
  %.sroa.speculated = select i1 %.not2, i64 %26, i64 %24
  store i64 %.sroa.speculated, ptr %17, align 8, !tbaa !24
  store atomic i32 0, ptr %0 seq_cst, align 8
  ret void
}